target datalayout = "e-m:e-p270:32:32-p271:32:32-p272:64:64-i64:64-i128:128-f80:128-n8:16:32:64-S128"
target triple = "x86_64-pc-linux-gnu"

; Function Attrs: alwaysinline nounwind willreturn memory(none) uwtable
define internal i32 @av_clip_uintp2_c(i32 noundef %0, i32 noundef %1) #4 {
  %3 = alloca i32, align 4
  %4 = alloca i32, align 4
  %5 = alloca i32, align 4
  store i32 %0, ptr %4, align 4, !tbaa !18
  store i32 %1, ptr %5, align 4, !tbaa !18
  %6 = load i32, ptr %4, align 4, !tbaa !18
  %7 = load i32, ptr %5, align 4, !tbaa !18
  %8 = shl i32 1, %7
  %9 = sub i32 %8, 1
  %10 = xor i32 %9, -1
  %11 = and i32 %6, %10
  %12 = icmp ne i32 %11, 0
  br i1 %12, label %13, label %21

13:                                               ; preds = %2
  %14 = load i32, ptr %4, align 4, !tbaa !18
  %15 = xor i32 %14, -1
  %16 = ashr i32 %15, 31
  %17 = load i32, ptr %5, align 4, !tbaa !18
  %18 = shl i32 1, %17
  %19 = sub i32 %18, 1
  %20 = and i32 %16, %19
  store i32 %20, ptr %3, align 4
  br label %23

21:                                               ; preds = %2
  %22 = load i32, ptr %4, align 4, !tbaa !18
  store i32 %22, ptr %3, align 4
  br label %23

23:                                               ; preds = %21, %13
  %24 = load i32, ptr %3, align 4
  ret i32 %24
}

; Function Attrs: alwaysinline nounwind uwtable
define internal void @iwht4_1d(ptr noundef %0, i64 noundef %1, ptr noundef %2, i32 noundef %3) #5 {
  %5 = alloca ptr, align 8
  %6 = alloca i64, align 8
  %7 = alloca ptr, align 8
  %8 = alloca i32, align 4
  %9 = alloca i32, align 4
  %10 = alloca i32, align 4
  %11 = alloca i32, align 4
  %12 = alloca i32, align 4
  %13 = alloca i32, align 4
  store ptr %0, ptr %5, align 8, !tbaa !35
  store i64 %1, ptr %6, align 8, !tbaa !12
  store ptr %2, ptr %7, align 8, !tbaa !35
  store i32 %3, ptr %8, align 4, !tbaa !18
  call void @llvm.lifetime.start.p0(i64 4, ptr %9) #9
  call void @llvm.lifetime.start.p0(i64 4, ptr %10) #9
  call void @llvm.lifetime.start.p0(i64 4, ptr %11) #9
  call void @llvm.lifetime.start.p0(i64 4, ptr %12) #9
  call void @llvm.lifetime.start.p0(i64 4, ptr %13) #9
  %14 = load i32, ptr %8, align 4, !tbaa !18
  %15 = icmp eq i32 %14, 0
  br i1 %15, label %16, label %49

16:                                               ; preds = %4
  %17 = load ptr, ptr %5, align 8, !tbaa !35
  %18 = load i64, ptr %6, align 8, !tbaa !12
  %19 = mul nsw i64 0, %18
  %20 = getelementptr inbounds i32, ptr %17, i64 %19
  %21 = load i32, ptr %20, align 4, !tbaa !18
  %22 = sext i32 %21 to i64
  %23 = ashr i64 %22, 2
  %24 = trunc i64 %23 to i32
  store i32 %24, ptr %9, align 4, !tbaa !18
  %25 = load ptr, ptr %5, align 8, !tbaa !35
  %26 = load i64, ptr %6, align 8, !tbaa !12
  %27 = mul nsw i64 3, %26
  %28 = getelementptr inbounds i32, ptr %25, i64 %27
  %29 = load i32, ptr %28, align 4, !tbaa !18
  %30 = sext i32 %29 to i64
  %31 = ashr i64 %30, 2
  %32 = trunc i64 %31 to i32
  store i32 %32, ptr %10, align 4, !tbaa !18
  %33 = load ptr, ptr %5, align 8, !tbaa !35
  %34 = load i64, ptr %6, align 8, !tbaa !12
  %35 = mul nsw i64 1, %34
  %36 = getelementptr inbounds i32, ptr %33, i64 %35
  %37 = load i32, ptr %36, align 4, !tbaa !18
  %38 = sext i32 %37 to i64
  %39 = ashr i64 %38, 2
  %40 = trunc i64 %39 to i32
  store i32 %40, ptr %11, align 4, !tbaa !18
  %41 = load ptr, ptr %5, align 8, !tbaa !35
  %42 = load i64, ptr %6, align 8, !tbaa !12
  %43 = mul nsw i64 2, %42
  %44 = getelementptr inbounds i32, ptr %41, i64 %43
  %45 = load i32, ptr %44, align 4, !tbaa !18
  %46 = sext i32 %45 to i64
  %47 = ashr i64 %46, 2
  %48 = trunc i64 %47 to i32
  store i32 %48, ptr %12, align 4, !tbaa !18
  br label %78

49:                                               ; preds = %4
  %50 = load ptr, ptr %5, align 8, !tbaa !35
  %51 = load i64, ptr %6, align 8, !tbaa !12
  %52 = mul nsw i64 0, %51
  %53 = getelementptr inbounds i32, ptr %50, i64 %52
  %54 = load i32, ptr %53, align 4, !tbaa !18
  %55 = sext i32 %54 to i64
  %56 = trunc i64 %55 to i32
  store i32 %56, ptr %9, align 4, !tbaa !18
  %57 = load ptr, ptr %5, align 8, !tbaa !35
  %58 = load i64, ptr %6, align 8, !tbaa !12
  %59 = mul nsw i64 3, %58
  %60 = getelementptr inbounds i32, ptr %57, i64 %59
  %61 = load i32, ptr %60, align 4, !tbaa !18
  %62 = sext i32 %61 to i64
  %63 = trunc i64 %62 to i32
  store i32 %63, ptr %10, align 4, !tbaa !18
  %64 = load ptr, ptr %5, align 8, !tbaa !35
  %65 = load i64, ptr %6, align 8, !tbaa !12
  %66 = mul nsw i64 1, %65
  %67 = getelementptr inbounds i32, ptr %64, i64 %66
  %68 = load i32, ptr %67, align 4, !tbaa !18
  %69 = sext i32 %68 to i64
  %70 = trunc i64 %69 to i32
  store i32 %70, ptr %11, align 4, !tbaa !18
  %71 = load ptr, ptr %5, align 8, !tbaa !35
  %72 = load i64, ptr %6, align 8, !tbaa !12
  %73 = mul nsw i64 2, %72
  %74 = getelementptr inbounds i32, ptr %71, i64 %73
  %75 = load i32, ptr %74, align 4, !tbaa !18
  %76 = sext i32 %75 to i64
  %77 = trunc i64 %76 to i32
  store i32 %77, ptr %12, align 4, !tbaa !18
  br label %78

78:                                               ; preds = %49, %16
  %79 = load i32, ptr %11, align 4, !tbaa !18
  %80 = load i32, ptr %9, align 4, !tbaa !18
  %81 = add nsw i32 %80, %79
  store i32 %81, ptr %9, align 4, !tbaa !18
  %82 = load i32, ptr %10, align 4, !tbaa !18
  %83 = load i32, ptr %12, align 4, !tbaa !18
  %84 = sub nsw i32 %83, %82
  store i32 %84, ptr %12, align 4, !tbaa !18
  %85 = load i32, ptr %9, align 4, !tbaa !18
  %86 = load i32, ptr %12, align 4, !tbaa !18
  %87 = sub nsw i32 %85, %86
  %88 = ashr i32 %87, 1
  store i32 %88, ptr %13, align 4, !tbaa !18
  %89 = load i32, ptr %13, align 4, !tbaa !18
  %90 = load i32, ptr %10, align 4, !tbaa !18
  %91 = sub nsw i32 %89, %90
  store i32 %91, ptr %10, align 4, !tbaa !18
  %92 = load i32, ptr %13, align 4, !tbaa !18
  %93 = load i32, ptr %11, align 4, !tbaa !18
  %94 = sub nsw i32 %92, %93
  store i32 %94, ptr %11, align 4, !tbaa !18
  %95 = load i32, ptr %10, align 4, !tbaa !18
  %96 = load i32, ptr %9, align 4, !tbaa !18
  %97 = sub nsw i32 %96, %95
  store i32 %97, ptr %9, align 4, !tbaa !18
  %98 = load i32, ptr %11, align 4, !tbaa !18
  %99 = load i32, ptr %12, align 4, !tbaa !18
  %100 = add nsw i32 %99, %98
  store i32 %100, ptr %12, align 4, !tbaa !18
  %101 = load i32, ptr %9, align 4, !tbaa !18
  %102 = load ptr, ptr %7, align 8, !tbaa !35
  %103 = getelementptr inbounds i32, ptr %102, i64 0
  store i32 %101, ptr %103, align 4, !tbaa !18
  %104 = load i32, ptr %10, align 4, !tbaa !18
  %105 = load ptr, ptr %7, align 8, !tbaa !35
  %106 = getelementptr inbounds i32, ptr %105, i64 1
  store i32 %104, ptr %106, align 4, !tbaa !18
  %107 = load i32, ptr %11, align 4, !tbaa !18
  %108 = load ptr, ptr %7, align 8, !tbaa !35
  %109 = getelementptr inbounds i32, ptr %108, i64 2
  store i32 %107, ptr %109, align 4, !tbaa !18
  %110 = load i32, ptr %12, align 4, !tbaa !18
  %111 = load ptr, ptr %7, align 8, !tbaa !35
  %112 = getelementptr inbounds i32, ptr %111, i64 3
  store i32 %110, ptr %112, align 4, !tbaa !18
  call void @llvm.lifetime.end.p0(i64 4, ptr %13) #9
  call void @llvm.lifetime.end.p0(i64 4, ptr %12) #9
  call void @llvm.lifetime.end.p0(i64 4, ptr %11) #9
  call void @llvm.lifetime.end.p0(i64 4, ptr %10) #9
  call void @llvm.lifetime.end.p0(i64 4, ptr %9) #9
  ret void
}

; Function Attrs: nounwind uwtable
define internal void @iwht_iwht_4x4_add_c(ptr noundef %0, i64 noundef %1, ptr noundef %2, i32 noundef %3) #2 {
  %5 = alloca ptr, align 8
  %6 = alloca i64, align 8
  %7 = alloca ptr, align 8
  %8 = alloca i32, align 4
  %9 = alloca i32, align 4
  %10 = alloca i32, align 4
  %11 = alloca ptr, align 8
  %12 = alloca ptr, align 8
  %13 = alloca [16 x i32], align 16
  %14 = alloca [4 x i32], align 16
  store ptr %0, ptr %5, align 8, !tbaa !10
  store i64 %1, ptr %6, align 8, !tbaa !12
  store ptr %2, ptr %7, align 8, !tbaa !14
  store i32 %3, ptr %8, align 4, !tbaa !18
  call void @llvm.lifetime.start.p0(i64 4, ptr %9) #9
  call void @llvm.lifetime.start.p0(i64 4, ptr %10) #9
  call void @llvm.lifetime.start.p0(i64 8, ptr %11) #9
  %15 = load ptr, ptr %5, align 8, !tbaa !10
  store ptr %15, ptr %11, align 8, !tbaa !14
  call void @llvm.lifetime.start.p0(i64 8, ptr %12) #9
  %16 = load ptr, ptr %7, align 8, !tbaa !14
  store ptr %16, ptr %12, align 8, !tbaa !35
  call void @llvm.lifetime.start.p0(i64 64, ptr %13) #9
  call void @llvm.lifetime.start.p0(i64 16, ptr %14) #9
  %17 = load i64, ptr %6, align 8, !tbaa !12
  %18 = udiv i64 %17, 2
  store i64 %18, ptr %6, align 8, !tbaa !12
  store i32 0, ptr %9, align 4, !tbaa !18
  br label %19

19:                                               ; preds = %32, %4
  %20 = load i32, ptr %9, align 4, !tbaa !18
  %21 = icmp slt i32 %20, 4
  br i1 %21, label %22, label %35

22:                                               ; preds = %19
  %23 = load ptr, ptr %12, align 8, !tbaa !35
  %24 = load i32, ptr %9, align 4, !tbaa !18
  %25 = sext i32 %24 to i64
  %26 = getelementptr inbounds i32, ptr %23, i64 %25
  %27 = getelementptr inbounds [16 x i32], ptr %13, i64 0, i64 0
  %28 = load i32, ptr %9, align 4, !tbaa !18
  %29 = mul nsw i32 %28, 4
  %30 = sext i32 %29 to i64
  %31 = getelementptr inbounds i32, ptr %27, i64 %30
  call void @iwht4_1d(ptr noundef %26, i64 noundef 4, ptr noundef %31, i32 noundef 0)
  br label %32

32:                                               ; preds = %22
  %33 = load i32, ptr %9, align 4, !tbaa !18
  %34 = add nsw i32 %33, 1
  store i32 %34, ptr %9, align 4, !tbaa !18
  br label %19, !llvm.loop !84

35:                                               ; preds = %19
  %36 = load ptr, ptr %12, align 8, !tbaa !35
  call void @llvm.memset.p0.i64(ptr align 4 %36, i8 0, i64 64, i1 false)
  store i32 0, ptr %9, align 4, !tbaa !18
  br label %37

37:                                               ; preds = %77, %35
  %38 = load i32, ptr %9, align 4, !tbaa !18
  %39 = icmp slt i32 %38, 4
  br i1 %39, label %40, label %80

40:                                               ; preds = %37
  %41 = getelementptr inbounds [16 x i32], ptr %13, i64 0, i64 0
  %42 = load i32, ptr %9, align 4, !tbaa !18
  %43 = sext i32 %42 to i64
  %44 = getelementptr inbounds i32, ptr %41, i64 %43
  %45 = getelementptr inbounds [4 x i32], ptr %14, i64 0, i64 0
  call void @iwht4_1d(ptr noundef %44, i64 noundef 4, ptr noundef %45, i32 noundef 1)
  store i32 0, ptr %10, align 4, !tbaa !18
  br label %46

46:                                               ; preds = %71, %40
  %47 = load i32, ptr %10, align 4, !tbaa !18
  %48 = icmp slt i32 %47, 4
  br i1 %48, label %49, label %74

49:                                               ; preds = %46
  %50 = load ptr, ptr %11, align 8, !tbaa !14
  %51 = load i32, ptr %10, align 4, !tbaa !18
  %52 = sext i32 %51 to i64
  %53 = load i64, ptr %6, align 8, !tbaa !12
  %54 = mul nsw i64 %52, %53
  %55 = getelementptr inbounds i16, ptr %50, i64 %54
  %56 = load i16, ptr %55, align 2, !tbaa !16
  %57 = zext i16 %56 to i32
  %58 = load i32, ptr %10, align 4, !tbaa !18
  %59 = sext i32 %58 to i64
  %60 = getelementptr inbounds [4 x i32], ptr %14, i64 0, i64 %59
  %61 = load i32, ptr %60, align 4, !tbaa !18
  %62 = add nsw i32 %57, %61
  %63 = call i32 @av_clip_uintp2_c(i32 noundef %62, i32 noundef 12) #10
  %64 = trunc i32 %63 to i16
  %65 = load ptr, ptr %11, align 8, !tbaa !14
  %66 = load i32, ptr %10, align 4, !tbaa !18
  %67 = sext i32 %66 to i64
  %68 = load i64, ptr %6, align 8, !tbaa !12
  %69 = mul nsw i64 %67, %68
  %70 = getelementptr inbounds i16, ptr %65, i64 %69
  store i16 %64, ptr %70, align 2, !tbaa !16
  br label %71

71:                                               ; preds = %49
  %72 = load i32, ptr %10, align 4, !tbaa !18
  %73 = add nsw i32 %72, 1
  store i32 %73, ptr %10, align 4, !tbaa !18
  br label %46, !llvm.loop !85

74:                                               ; preds = %46
  %75 = load ptr, ptr %11, align 8, !tbaa !14
  %76 = getelementptr inbounds nuw i16, ptr %75, i32 1
  store ptr %76, ptr %11, align 8, !tbaa !14
  br label %77

77:                                               ; preds = %74
  %78 = load i32, ptr %9, align 4, !tbaa !18
  %79 = add nsw i32 %78, 1
  store i32 %79, ptr %9, align 4, !tbaa !18
  br label %37, !llvm.loop !86

80:                                               ; preds = %37
  call void @llvm.lifetime.end.p0(i64 16, ptr %14) #9
  call void @llvm.lifetime.end.p0(i64 64, ptr %13) #9
  call void @llvm.lifetime.end.p0(i64 8, ptr %12) #9
  call void @llvm.lifetime.end.p0(i64 8, ptr %11) #9
  call void @llvm.lifetime.end.p0(i64 4, ptr %10) #9
  call void @llvm.lifetime.end.p0(i64 4, ptr %9) #9
  ret void
}