; Function Attrs: nofree norecurse nosync nounwind memory(argmem: readwrite) uwtable
define internal void @iwht_iwht_4x4_add_c(ptr noundef captures(none) %0, i64 noundef %1, ptr noundef captures(none) %2, i32 %3) #3 {
  %5 = alloca [16 x i32], align 16
  %6 = alloca [4 x i32], align 16
  call void @llvm.lifetime.start.p0(i64 64, ptr nonnull %5) #11
  call void @llvm.lifetime.start.p0(i64 16, ptr nonnull %6) #11
  br label %7

7:                                                ; preds = %4, %7
  %indvars.iv = phi i64 [ 0, %4 ], [ %indvars.iv.next, %7 ]
  %8 = getelementptr inbounds nuw i32, ptr %2, i64 %indvars.iv
  %.idx = shl nuw nsw i64 %indvars.iv, 4
  %9 = getelementptr inbounds nuw i8, ptr %5, i64 %.idx
  %10 = load i32, ptr %8, align 4, !tbaa !25
  %11 = ashr i32 %10, 2
  %12 = getelementptr inbounds nuw i8, ptr %8, i64 48
  %13 = load i32, ptr %12, align 4, !tbaa !25
  %14 = ashr i32 %13, 2
  %15 = getelementptr inbounds nuw i8, ptr %8, i64 16
  %16 = load i32, ptr %15, align 4, !tbaa !25
  %17 = ashr i32 %16, 2
  %18 = getelementptr inbounds nuw i8, ptr %8, i64 32
  %19 = load i32, ptr %18, align 4, !tbaa !25
  %20 = ashr i32 %19, 2
  %21 = add nsw i32 %17, %11
  %22 = sub nsw i32 %20, %14
  %23 = sub nsw i32 %21, %22
  %24 = ashr i32 %23, 1
  %25 = sub nsw i32 %24, %14
  %26 = sub nsw i32 %24, %17
  %27 = sub nsw i32 %21, %25
  %28 = add nsw i32 %26, %22
  store i32 %27, ptr %9, align 16, !tbaa !25
  %29 = getelementptr inbounds nuw i8, ptr %9, i64 4
  store i32 %25, ptr %29, align 4, !tbaa !25
  %30 = getelementptr inbounds nuw i8, ptr %9, i64 8
  store i32 %26, ptr %30, align 8, !tbaa !25
  %31 = getelementptr inbounds nuw i8, ptr %9, i64 12
  store i32 %28, ptr %31, align 4, !tbaa !25
  %indvars.iv.next = add nuw nsw i64 %indvars.iv, 1
  %exitcond.not = icmp eq i64 %indvars.iv.next, 4
  br i1 %exitcond.not, label %32, label %7, !llvm.loop !74

32:                                               ; preds = %7
  %33 = lshr i64 %1, 1
  tail call void @llvm.memset.p0.i64(ptr noundef nonnull align 4 dereferenceable(64) %2, i8 0, i64 64, i1 false)
  %34 = getelementptr inbounds nuw i8, ptr %6, i64 4
  %35 = getelementptr inbounds nuw i8, ptr %6, i64 8
  %36 = getelementptr inbounds nuw i8, ptr %6, i64 12
  br label %37

37:                                               ; preds = %32, %65
  %indvars.iv34 = phi i64 [ 0, %32 ], [ %indvars.iv.next35, %65 ]
  %.028 = phi ptr [ %0, %32 ], [ %66, %65 ]
  %38 = getelementptr inbounds nuw i32, ptr %5, i64 %indvars.iv34
  %39 = load i32, ptr %38, align 4, !tbaa !25
  %40 = getelementptr inbounds nuw i8, ptr %38, i64 48
  %41 = load i32, ptr %40, align 4, !tbaa !25
  %42 = getelementptr inbounds nuw i8, ptr %38, i64 16
  %43 = load i32, ptr %42, align 4, !tbaa !25
  %44 = getelementptr inbounds nuw i8, ptr %38, i64 32
  %45 = load i32, ptr %44, align 4, !tbaa !25
  %46 = add nsw i32 %43, %39
  %47 = sub nsw i32 %45, %41
  %48 = sub nsw i32 %46, %47
  %49 = ashr i32 %48, 1
  %50 = sub nsw i32 %49, %41
  %51 = sub nsw i32 %49, %43
  %52 = sub nsw i32 %46, %50
  %53 = add nsw i32 %51, %47
  store i32 %52, ptr %6, align 16, !tbaa !25
  store i32 %50, ptr %34, align 4, !tbaa !25
  store i32 %51, ptr %35, align 8, !tbaa !25
  store i32 %53, ptr %36, align 4, !tbaa !25
  br label %54

54:                                               ; preds = %37, %54
  %indvars.iv30 = phi i64 [ 0, %37 ], [ %indvars.iv.next31, %54 ]
  %55 = mul nuw nsw i64 %33, %indvars.iv30
  %56 = getelementptr inbounds nuw i16, ptr %.028, i64 %55
  %57 = load i16, ptr %56, align 2, !tbaa !8
  %58 = zext i16 %57 to i32
  %59 = getelementptr inbounds nuw [4 x i32], ptr %6, i64 0, i64 %indvars.iv30
  %60 = load i32, ptr %59, align 4, !tbaa !25
  %61 = add nsw i32 %60, %58
  %62 = tail call i32 @llvm.smax.i32(i32 %61, i32 0)
  %63 = tail call i32 @llvm.umin.i32(i32 %62, i32 4095)
  %64 = trunc nuw nsw i32 %63 to i16
  store i16 %64, ptr %56, align 2, !tbaa !8
  %indvars.iv.next31 = add nuw nsw i64 %indvars.iv30, 1
  %exitcond33.not = icmp eq i64 %indvars.iv.next31, 4
  br i1 %exitcond33.not, label %65, label %54, !llvm.loop !75

65:                                               ; preds = %54
  %66 = getelementptr inbounds nuw i8, ptr %.028, i64 2
  %indvars.iv.next35 = add nuw nsw i64 %indvars.iv34, 1
  %exitcond37.not = icmp eq i64 %indvars.iv.next35, 4
  br i1 %exitcond37.not, label %67, label %37, !llvm.loop !76

67:                                               ; preds = %65
  call void @llvm.lifetime.end.p0(i64 16, ptr nonnull %6) #11
  call void @llvm.lifetime.end.p0(i64 64, ptr nonnull %5) #11
  ret void
}